target datalayout = "e-m:e-p270:32:32-p271:32:32-p272:64:64-i64:64-i128:128-f80:128-n8:16:32:64-S128"
target triple = "x86_64-pc-linux-gnu"

%struct.SDL_Camera = type { ptr, ptr, i32, %struct.SDL_AtomicInt, ptr, ptr, ptr, ptr, i32, %struct.SDL_CameraSpec, %struct.SDL_CameraSpec, i32, ptr, i32, i64, i64, ptr, ptr, [8 x %struct.SurfaceList], %struct.SurfaceList, %struct.SurfaceList, %struct.SurfaceList, ptr, i32, i8, %struct.SDL_AtomicInt, %struct.SDL_AtomicInt, ptr, i32, i32, ptr }
%struct.SDL_CameraSpec = type { i32, i32, i32, i32, i32, i32 }
%struct.SurfaceList = type { ptr, i64, ptr }
%struct.SDL_AtomicInt = type { i32 }
%struct.SDL_PrivateCameraData = type { i32, i32, i32, ptr, i32 }
%struct.buffer = type { ptr, i64, i32 }

; Function Attrs: nounwind uwtable
define internal zeroext i1 @AllocBufferRead(ptr noundef %0, i64 noundef %1) #0 {
  %3 = alloca ptr, align 8
  %4 = alloca i64, align 8
  store ptr %0, ptr %3, align 8
  store i64 %1, ptr %4, align 8
  %5 = load i64, ptr %4, align 8
  %6 = load ptr, ptr %3, align 8
  %7 = getelementptr inbounds nuw %struct.SDL_Camera, ptr %6, i32 0, i32 30
  %8 = load ptr, ptr %7, align 8
  %9 = getelementptr inbounds nuw %struct.SDL_PrivateCameraData, ptr %8, i32 0, i32 3
  %10 = load ptr, ptr %9, align 8
  %11 = getelementptr inbounds %struct.buffer, ptr %10, i64 0
  %12 = getelementptr inbounds nuw %struct.buffer, ptr %11, i32 0, i32 1
  store i64 %5, ptr %12, align 8
  %13 = load i64, ptr %4, align 8
  %14 = call noalias ptr @SDL_calloc_REAL(i64 noundef 1, i64 noundef %13) #10
  %15 = load ptr, ptr %3, align 8
  %16 = getelementptr inbounds nuw %struct.SDL_Camera, ptr %15, i32 0, i32 30
  %17 = load ptr, ptr %16, align 8
  %18 = getelementptr inbounds nuw %struct.SDL_PrivateCameraData, ptr %17, i32 0, i32 3
  %19 = load ptr, ptr %18, align 8
  %20 = getelementptr inbounds %struct.buffer, ptr %19, i64 0
  %21 = getelementptr inbounds nuw %struct.buffer, ptr %20, i32 0, i32 0
  store ptr %14, ptr %21, align 8
  %22 = load ptr, ptr %3, align 8
  %23 = getelementptr inbounds nuw %struct.SDL_Camera, ptr %22, i32 0, i32 30
  %24 = load ptr, ptr %23, align 8
  %25 = getelementptr inbounds nuw %struct.SDL_PrivateCameraData, ptr %24, i32 0, i32 3
  %26 = load ptr, ptr %25, align 8
  %27 = getelementptr inbounds %struct.buffer, ptr %26, i64 0
  %28 = getelementptr inbounds nuw %struct.buffer, ptr %27, i32 0, i32 0
  %29 = load ptr, ptr %28, align 8
  %30 = icmp ne ptr %29, null
  ret i1 %30
}