; Function Attrs: nounwind uwtable
define internal fastcc zeroext i1 @AllocBufferRead(ptr noundef readonly captures(none) %0, i64 noundef %1) unnamed_addr #1 {
  %3 = getelementptr inbounds nuw i8, ptr %0, i64 464
  %4 = load ptr, ptr %3, align 8
  %5 = getelementptr inbounds nuw i8, ptr %4, i64 16
  %6 = load ptr, ptr %5, align 8
  %7 = getelementptr inbounds nuw i8, ptr %6, i64 8
  store i64 %1, ptr %7, align 8
  %8 = tail call noalias ptr @SDL_calloc_REAL(i64 noundef 1, i64 noundef %1) #13
  %9 = load ptr, ptr %3, align 8
  %10 = getelementptr inbounds nuw i8, ptr %9, i64 16
  %11 = load ptr, ptr %10, align 8
  store ptr %8, ptr %11, align 8
  %12 = load ptr, ptr %3, align 8
  %13 = getelementptr inbounds nuw i8, ptr %12, i64 16
  %14 = load ptr, ptr %13, align 8
  %15 = load ptr, ptr %14, align 8
  %16 = icmp ne ptr %15, null
  ret i1 %16
}